; ModuleID = 'bench/portaudio/original/pa_cpuload.ll'
source_filename = "bench/portaudio/original/pa_cpuload.ll"
target datalayout = "e-m:e-p270:32:32-p271:32:32-p272:64:64-i64:64-i128:128-f80:128-n8:16:32:64-S128"
target triple = "x86_64-pc-linux-gnu"

; Function Attrs: mustprogress nofree norecurse nosync nounwind willreturn memory(argmem: write) uwtable
define void @PaUtil_InitializeCpuLoadMeasurer(ptr noundef writeonly captures(none) initializes((0, 8), (16, 24)) %0, double noundef %1) local_unnamed_addr #0 {
  %3 = fdiv double 1.000000e+00, %1
  store double %3, ptr %0, align 8, !tbaa !3
  %4 = getelementptr inbounds nuw i8, ptr %0, i64 16
  store double 0.000000e+00, ptr %4, align 8, !tbaa !8
  ret void
}

; Function Attrs: mustprogress nofree norecurse nosync nounwind willreturn memory(argmem: write) uwtable
define void @PaUtil_ResetCpuLoadMeasurer(ptr noundef writeonly captures(none) initializes((16, 24)) %0) local_unnamed_addr #0 {
  %2 = getelementptr inbounds nuw i8, ptr %0, i64 16
  store double 0.000000e+00, ptr %2, align 8, !tbaa !8
  ret void
}

; Function Attrs: nounwind uwtable
define void @PaUtil_BeginCpuLoadMeasurement(ptr noundef writeonly captures(none) initializes((8, 16)) %0) local_unnamed_addr #1 {
  %2 = tail call double @PaUtil_GetTime() #5
  %3 = getelementptr inbounds nuw i8, ptr %0, i64 8
  store double %2, ptr %3, align 8, !tbaa !9
  ret void
}

declare double @PaUtil_GetTime() local_unnamed_addr #2

; Function Attrs: nounwind uwtable
define void @PaUtil_EndCpuLoadMeasurement(ptr noundef captures(none) %0, i64 noundef %1) local_unnamed_addr #1 {
  %.not = icmp eq i64 %1, 0
  br i1 %.not, label %16, label %3

3:                                                ; preds = %2
  %4 = tail call double @PaUtil_GetTime() #5
  %5 = uitofp i64 %1 to double
  %6 = load double, ptr %0, align 8, !tbaa !3
  %7 = fmul double %6, %5
  %8 = getelementptr inbounds nuw i8, ptr %0, i64 8
  %9 = load double, ptr %8, align 8, !tbaa !9
  %10 = fsub double %4, %9
  %11 = fdiv double %10, %7
  %12 = getelementptr inbounds nuw i8, ptr %0, i64 16
  %13 = load double, ptr %12, align 8, !tbaa !8
  %14 = fmul double %11, 0x3FB998F1D3ED5280
  %15 = tail call double @llvm.fmuladd.f64(double %13, double 9.000000e-01, double %14)
  store double %15, ptr %12, align 8, !tbaa !8
  br label %16

16:                                               ; preds = %3, %2
  ret void
}

; Function Attrs: mustprogress nocallback nofree nosync nounwind speculatable willreturn memory(none)
declare double @llvm.fmuladd.f64(double, double, double) #3

; Function Attrs: mustprogress nofree norecurse nosync nounwind willreturn memory(argmem: read) uwtable
define double @PaUtil_GetCpuLoad(ptr noundef readonly captures(none) %0) local_unnamed_addr #4 {
  %2 = getelementptr inbounds nuw i8, ptr %0, i64 16
  %3 = load double, ptr %2, align 8, !tbaa !8
  ret double %3
}


!llvm.module.flags = !{!0, !1, !2}

!0 = !{i32 1, !"wchar_size", i32 4}
!1 = !{i32 8, !"PIC Level", i32 2}
!2 = !{i32 7, !"uwtable", i32 2}
!3 = !{!4, !5, i64 0}
!4 = !{!"", !5, i64 0, !5, i64 8, !5, i64 16}
!5 = !{!"double", !6, i64 0}
!6 = !{!"omnipotent char", !7, i64 0}
!7 = !{!"Simple C/C++ TBAA"}
!8 = !{!4, !5, i64 16}
!9 = !{!4, !5, i64 8}
